; ModuleID = '32/637.c'
source_filename = "32/637.c"
target datalayout = "e-m:e-p270:32:32-p271:32:32-p272:64:64-i64:64-f80:128-n8:16:32:64-S128"
target triple = "x86_64-pc-linux-gnu"

%struct.num = type { [100 x i8], [100 x i8] }

@.str = private unnamed_addr constant [3 x i8] c"%d\00", align 1
@.str.1 = private unnamed_addr constant [3 x i8] c"%s\00", align 1
@.str.2 = private unnamed_addr constant [2 x i8] c"\0A\00", align 1
@.str.3 = private unnamed_addr constant [3 x i8] c"%c\00", align 1

; Function Attrs: noinline nounwind uwtable
define dso_local void @main() #0 {
  %1 = alloca i32, align 4
  %2 = alloca i32, align 4
  %3 = alloca [10 x %struct.num], align 16
  %4 = call i32 (i8*, ...) @__isoc99_scanf(i8* getelementptr inbounds ([3 x i8], [3 x i8]* @.str, i64 0, i64 0), i32* %1)
  store i32 0, i32* %2, align 4
  br label %5

5:                                                ; preds = %24, %0
  %6 = load i32, i32* %2, align 4
  %7 = load i32, i32* %1, align 4
  %8 = sub nsw i32 %7, 1
  %9 = icmp sle i32 %6, %8
  br i1 %9, label %10, label %27

10:                                               ; preds = %5
  %11 = load i32, i32* %2, align 4
  %12 = sext i32 %11 to i64
  %13 = getelementptr inbounds [10 x %struct.num], [10 x %struct.num]* %3, i64 0, i64 %12
  %14 = getelementptr inbounds %struct.num, %struct.num* %13, i32 0, i32 0
  %15 = getelementptr inbounds [100 x i8], [100 x i8]* %14, i64 0, i64 0
  %16 = call i32 (i8*, ...) @__isoc99_scanf(i8* getelementptr inbounds ([3 x i8], [3 x i8]* @.str.1, i64 0, i64 0), i8* %15)
  %17 = load i32, i32* %2, align 4
  %18 = sext i32 %17 to i64
  %19 = getelementptr inbounds [10 x %struct.num], [10 x %struct.num]* %3, i64 0, i64 %18
  %20 = getelementptr inbounds %struct.num, %struct.num* %19, i32 0, i32 1
  %21 = getelementptr inbounds [100 x i8], [100 x i8]* %20, i64 0, i64 0
  %22 = call i32 (i8*, ...) @__isoc99_scanf(i8* getelementptr inbounds ([3 x i8], [3 x i8]* @.str.1, i64 0, i64 0), i8* %21)
  %23 = call i32 (i8*, ...) @printf(i8* getelementptr inbounds ([2 x i8], [2 x i8]* @.str.2, i64 0, i64 0))
  br label %24

24:                                               ; preds = %10
  %25 = load i32, i32* %2, align 4
  %26 = add nsw i32 %25, 1
  store i32 %26, i32* %2, align 4
  br label %5

27:                                               ; preds = %5
  store i32 0, i32* %2, align 4
  br label %28

28:                                               ; preds = %45, %27
  %29 = load i32, i32* %2, align 4
  %30 = load i32, i32* %1, align 4
  %31 = sub nsw i32 %30, 1
  %32 = icmp sle i32 %29, %31
  br i1 %32, label %33, label %48

33:                                               ; preds = %28
  %34 = load i32, i32* %2, align 4
  %35 = sext i32 %34 to i64
  %36 = getelementptr inbounds [10 x %struct.num], [10 x %struct.num]* %3, i64 0, i64 %35
  %37 = getelementptr inbounds %struct.num, %struct.num* %36, i32 0, i32 0
  %38 = getelementptr inbounds [100 x i8], [100 x i8]* %37, i64 0, i64 0
  %39 = load i32, i32* %2, align 4
  %40 = sext i32 %39 to i64
  %41 = getelementptr inbounds [10 x %struct.num], [10 x %struct.num]* %3, i64 0, i64 %40
  %42 = getelementptr inbounds %struct.num, %struct.num* %41, i32 0, i32 1
  %43 = getelementptr inbounds [100 x i8], [100 x i8]* %42, i64 0, i64 0
  call void @f(i8* %38, i8* %43)
  %44 = call i32 (i8*, ...) @printf(i8* getelementptr inbounds ([2 x i8], [2 x i8]* @.str.2, i64 0, i64 0))
  br label %45

45:                                               ; preds = %33
  %46 = load i32, i32* %2, align 4
  %47 = add nsw i32 %46, 1
  store i32 %47, i32* %2, align 4
  br label %28

48:                                               ; preds = %28
  %49 = call i32 (i8*, ...) @printf(i8* getelementptr inbounds ([2 x i8], [2 x i8]* @.str.2, i64 0, i64 0))
  ret void
}

declare dso_local i32 @__isoc99_scanf(i8*, ...) #1

declare dso_local i32 @printf(i8*, ...) #1

; Function Attrs: noinline nounwind uwtable
define dso_local void @f(i8* %0, i8* %1) #0 {
  %3 = alloca i8*, align 8
  %4 = alloca i8*, align 8
  %5 = alloca i32, align 4
  %6 = alloca i32, align 4
  %7 = alloca i32, align 4
  %8 = alloca i32, align 4
  %9 = alloca [100 x i8], align 16
  store i8* %0, i8** %3, align 8
  store i8* %1, i8** %4, align 8
  %10 = load i8*, i8** %3, align 8
  %11 = call i64 @strlen(i8* %10) #3
  %12 = trunc i64 %11 to i32
  store i32 %12, i32* %5, align 4
  %13 = load i8*, i8** %4, align 8
  %14 = call i64 @strlen(i8* %13) #3
  %15 = trunc i64 %14 to i32
  store i32 %15, i32* %6, align 4
  %16 = load i32, i32* %5, align 4
  %17 = sub nsw i32 %16, 1
  store i32 %17, i32* %7, align 4
  br label %18

18:                                               ; preds = %103, %2
  %19 = load i32, i32* %7, align 4
  %20 = load i32, i32* %5, align 4
  %21 = load i32, i32* %6, align 4
  %22 = sub nsw i32 %20, %21
  %23 = icmp sge i32 %19, %22
  br i1 %23, label %24, label %106

24:                                               ; preds = %18
  %25 = load i8*, i8** %3, align 8
  %26 = load i32, i32* %7, align 4
  %27 = sext i32 %26 to i64
  %28 = getelementptr inbounds i8, i8* %25, i64 %27
  %29 = load i8, i8* %28, align 1
  %30 = sext i8 %29 to i32
  %31 = load i8*, i8** %4, align 8
  %32 = load i32, i32* %7, align 4
  %33 = load i32, i32* %5, align 4
  %34 = sub nsw i32 %32, %33
  %35 = load i32, i32* %6, align 4
  %36 = add nsw i32 %34, %35
  %37 = sext i32 %36 to i64
  %38 = getelementptr inbounds i8, i8* %31, i64 %37
  %39 = load i8, i8* %38, align 1
  %40 = sext i8 %39 to i32
  %41 = icmp sge i32 %30, %40
  br i1 %41, label %42, label %65

42:                                               ; preds = %24
  %43 = load i8*, i8** %3, align 8
  %44 = load i32, i32* %7, align 4
  %45 = sext i32 %44 to i64
  %46 = getelementptr inbounds i8, i8* %43, i64 %45
  %47 = load i8, i8* %46, align 1
  %48 = sext i8 %47 to i32
  %49 = load i8*, i8** %4, align 8
  %50 = load i32, i32* %7, align 4
  %51 = load i32, i32* %5, align 4
  %52 = sub nsw i32 %50, %51
  %53 = load i32, i32* %6, align 4
  %54 = add nsw i32 %52, %53
  %55 = sext i32 %54 to i64
  %56 = getelementptr inbounds i8, i8* %49, i64 %55
  %57 = load i8, i8* %56, align 1
  %58 = sext i8 %57 to i32
  %59 = sub nsw i32 %48, %58
  %60 = add nsw i32 %59, 48
  %61 = trunc i32 %60 to i8
  %62 = load i32, i32* %7, align 4
  %63 = sext i32 %62 to i64
  %64 = getelementptr inbounds [100 x i8], [100 x i8]* %9, i64 0, i64 %63
  store i8 %61, i8* %64, align 1
  br label %102

65:                                               ; preds = %24
  %66 = load i8*, i8** %3, align 8
  %67 = load i32, i32* %7, align 4
  %68 = sext i32 %67 to i64
  %69 = getelementptr inbounds i8, i8* %66, i64 %68
  %70 = load i8, i8* %69, align 1
  %71 = sext i8 %70 to i32
  %72 = load i8*, i8** %4, align 8
  %73 = load i32, i32* %7, align 4
  %74 = load i32, i32* %5, align 4
  %75 = sub nsw i32 %73, %74
  %76 = load i32, i32* %6, align 4
  %77 = add nsw i32 %75, %76
  %78 = sext i32 %77 to i64
  %79 = getelementptr inbounds i8, i8* %72, i64 %78
  %80 = load i8, i8* %79, align 1
  %81 = sext i8 %80 to i32
  %82 = sub nsw i32 %71, %81
  %83 = add nsw i32 %82, 58
  %84 = trunc i32 %83 to i8
  %85 = load i32, i32* %7, align 4
  %86 = sext i32 %85 to i64
  %87 = getelementptr inbounds [100 x i8], [100 x i8]* %9, i64 0, i64 %86
  store i8 %84, i8* %87, align 1
  %88 = load i8*, i8** %3, align 8
  %89 = load i32, i32* %7, align 4
  %90 = sub nsw i32 %89, 1
  %91 = sext i32 %90 to i64
  %92 = getelementptr inbounds i8, i8* %88, i64 %91
  %93 = load i8, i8* %92, align 1
  %94 = sext i8 %93 to i32
  %95 = sub nsw i32 %94, 1
  %96 = trunc i32 %95 to i8
  %97 = load i8*, i8** %3, align 8
  %98 = load i32, i32* %7, align 4
  %99 = sub nsw i32 %98, 1
  %100 = sext i32 %99 to i64
  %101 = getelementptr inbounds i8, i8* %97, i64 %100
  store i8 %96, i8* %101, align 1
  br label %102

102:                                              ; preds = %65, %42
  br label %103

103:                                              ; preds = %102
  %104 = load i32, i32* %7, align 4
  %105 = add nsw i32 %104, -1
  store i32 %105, i32* %7, align 4
  br label %18

106:                                              ; preds = %18
  store i32 0, i32* %8, align 4
  br label %107

107:                                              ; preds = %123, %106
  %108 = load i32, i32* %8, align 4
  %109 = load i32, i32* %5, align 4
  %110 = load i32, i32* %6, align 4
  %111 = sub nsw i32 %109, %110
  %112 = sub nsw i32 %111, 1
  %113 = icmp sle i32 %108, %112
  br i1 %113, label %114, label %126

114:                                              ; preds = %107
  %115 = load i8*, i8** %3, align 8
  %116 = load i32, i32* %8, align 4
  %117 = sext i32 %116 to i64
  %118 = getelementptr inbounds i8, i8* %115, i64 %117
  %119 = load i8, i8* %118, align 1
  %120 = load i32, i32* %8, align 4
  %121 = sext i32 %120 to i64
  %122 = getelementptr inbounds [100 x i8], [100 x i8]* %9, i64 0, i64 %121
  store i8 %119, i8* %122, align 1
  br label %123

123:                                              ; preds = %114
  %124 = load i32, i32* %8, align 4
  %125 = add nsw i32 %124, 1
  store i32 %125, i32* %8, align 4
  br label %107

126:                                              ; preds = %107
  store i32 0, i32* %8, align 4
  br label %127

127:                                              ; preds = %139, %126
  %128 = load i32, i32* %8, align 4
  %129 = load i32, i32* %5, align 4
  %130 = sub nsw i32 %129, 1
  %131 = icmp sle i32 %128, %130
  br i1 %131, label %132, label %142

132:                                              ; preds = %127
  %133 = load i32, i32* %8, align 4
  %134 = sext i32 %133 to i64
  %135 = getelementptr inbounds [100 x i8], [100 x i8]* %9, i64 0, i64 %134
  %136 = load i8, i8* %135, align 1
  %137 = sext i8 %136 to i32
  %138 = call i32 (i8*, ...) @printf(i8* getelementptr inbounds ([3 x i8], [3 x i8]* @.str.3, i64 0, i64 0), i32 %137)
  br label %139

139:                                              ; preds = %132
  %140 = load i32, i32* %8, align 4
  %141 = add nsw i32 %140, 1
  store i32 %141, i32* %8, align 4
  br label %127

142:                                              ; preds = %127
  ret void
}

; Function Attrs: nounwind readonly
declare dso_local i64 @strlen(i8*) #2


!llvm.module.flags = !{!0}
!llvm.ident = !{!1}

!0 = !{i32 1, !"wchar_size", i32 4}
!1 = !{!"clang version 10.0.0-4ubuntu1 "}
